target datalayout = "e-m:e-p270:32:32-p271:32:32-p272:64:64-i64:64-i128:128-f80:128-n8:16:32:64-S128"
target triple = "x86_64-pc-linux-gnu"

%"struct.Luau::CodeGen::BuiltinImplResult" = type { i32, i32 }
%"struct.Luau::CodeGen::IrOp" = type { i32 }

; Function Attrs: mustprogress uwtable
define internal i32 @_ZN4Luau7CodeGenL17builtinLoadDoubleERNS0_9IrBuilderENS0_4IrOpE(ptr noundef nonnull align 8 dereferenceable(752) %0, i32 %1) #2 {
  %3 = alloca %"struct.Luau::CodeGen::IrOp", align 4
  %4 = alloca %"struct.Luau::CodeGen::IrOp", align 4
  %5 = alloca ptr, align 8
  %6 = alloca %"struct.Luau::CodeGen::IrOp", align 4
  %7 = getelementptr inbounds nuw %"struct.Luau::CodeGen::IrOp", ptr %4, i32 0, i32 0
  store i32 %1, ptr %7, align 4
  store ptr %0, ptr %5, align 8, !tbaa !20
  %8 = load i32, ptr %4, align 4
  %9 = and i32 %8, 15
  %10 = icmp eq i32 %9, 2
  br i1 %10, label %11, label %12

11:                                               ; preds = %2
  call void @llvm.memcpy.p0.p0.i64(ptr align 4 %3, ptr align 4 %4, i64 4, i1 false), !tbaa.struct !28
  br label %18

12:                                               ; preds = %2
  %13 = load ptr, ptr %5, align 8, !tbaa !20
  call void @llvm.memcpy.p0.p0.i64(ptr align 4 %6, ptr align 4 %4, i64 4, i1 false), !tbaa.struct !28
  %14 = getelementptr inbounds nuw %"struct.Luau::CodeGen::IrOp", ptr %6, i32 0, i32 0
  %15 = load i32, ptr %14, align 4
  %16 = call i32 @_ZN4Luau7CodeGen9IrBuilder4instENS0_5IrCmdENS0_4IrOpE(ptr noundef nonnull align 8 dereferenceable(752) %13, i8 noundef zeroext 3, i32 %15)
  %17 = getelementptr inbounds nuw %"struct.Luau::CodeGen::IrOp", ptr %3, i32 0, i32 0
  store i32 %16, ptr %17, align 4
  br label %18

18:                                               ; preds = %12, %11
  %19 = getelementptr inbounds nuw %"struct.Luau::CodeGen::IrOp", ptr %3, i32 0, i32 0
  %20 = load i32, ptr %19, align 4
  ret i32 %20
}

; Function Attrs: mustprogress uwtable
define internal void @_ZN4Luau7CodeGenL18builtinCheckDoubleERNS0_9IrBuilderENS0_4IrOpEi(ptr noundef nonnull align 8 dereferenceable(752) %0, i32 %1, i32 noundef %2) #2 {
  %4 = alloca %"struct.Luau::CodeGen::IrOp", align 4
  %5 = alloca ptr, align 8
  %6 = alloca i32, align 4
  %7 = alloca %"struct.Luau::CodeGen::IrOp", align 4
  %8 = alloca %"struct.Luau::CodeGen::IrOp", align 4
  %9 = getelementptr inbounds nuw %"struct.Luau::CodeGen::IrOp", ptr %4, i32 0, i32 0
  store i32 %1, ptr %9, align 4
  store ptr %0, ptr %5, align 8, !tbaa !20
  store i32 %2, ptr %6, align 4, !tbaa !22
  %10 = load i32, ptr %4, align 4
  %11 = and i32 %10, 15
  %12 = icmp eq i32 %11, 2
  br i1 %12, label %13, label %14

13:                                               ; preds = %3
  br label %24

14:                                               ; preds = %3
  %15 = load ptr, ptr %5, align 8, !tbaa !20
  call void @llvm.memcpy.p0.p0.i64(ptr align 4 %7, ptr align 4 %4, i64 4, i1 false), !tbaa.struct !28
  %16 = load ptr, ptr %5, align 8, !tbaa !20
  %17 = load i32, ptr %6, align 4, !tbaa !22
  %18 = call i32 @_ZN4Luau7CodeGen9IrBuilder6vmExitEj(ptr noundef nonnull align 8 dereferenceable(752) %16, i32 noundef %17)
  %19 = getelementptr inbounds nuw %"struct.Luau::CodeGen::IrOp", ptr %8, i32 0, i32 0
  store i32 %18, ptr %19, align 4
  %20 = getelementptr inbounds nuw %"struct.Luau::CodeGen::IrOp", ptr %7, i32 0, i32 0
  %21 = load i32, ptr %20, align 4
  %22 = getelementptr inbounds nuw %"struct.Luau::CodeGen::IrOp", ptr %8, i32 0, i32 0
  %23 = load i32, ptr %22, align 4
  call void @_ZN4Luau7CodeGen9IrBuilder15loadAndCheckTagENS0_4IrOpEhS2_(ptr noundef nonnull align 8 dereferenceable(752) %15, i32 %21, i8 noundef zeroext 3, i32 %23)
  br label %24

24:                                               ; preds = %14, %13
  ret void
}

; Function Attrs: mustprogress uwtable
define internal i64 @_ZN4Luau7CodeGenL26translateBuiltinBit32UnaryERNS0_9IrBuilderENS0_5IrCmdEiiiNS0_4IrOpEii(ptr noundef nonnull align 8 dereferenceable(752) %0, i8 noundef zeroext %1, i32 noundef %2, i32 noundef %3, i32 noundef %4, i32 %5, i32 noundef %6, i32 noundef %7) #2 {
  %9 = alloca %"struct.Luau::CodeGen::BuiltinImplResult", align 4
  %10 = alloca %"struct.Luau::CodeGen::IrOp", align 4
  %11 = alloca ptr, align 8
  %12 = alloca i8, align 1
  %13 = alloca i32, align 4
  %14 = alloca i32, align 4
  %15 = alloca i32, align 4
  %16 = alloca i32, align 4
  %17 = alloca i32, align 4
  %18 = alloca %"struct.Luau::CodeGen::IrOp", align 4
  %19 = alloca %"struct.Luau::CodeGen::IrOp", align 4
  %20 = alloca %"struct.Luau::CodeGen::IrOp", align 4
  %21 = alloca %"struct.Luau::CodeGen::IrOp", align 4
  %22 = alloca %"struct.Luau::CodeGen::IrOp", align 4
  %23 = alloca %"struct.Luau::CodeGen::IrOp", align 4
  %24 = alloca %"struct.Luau::CodeGen::IrOp", align 4
  %25 = alloca %"struct.Luau::CodeGen::IrOp", align 4
  %26 = alloca %"struct.Luau::CodeGen::IrOp", align 4
  %27 = alloca %"struct.Luau::CodeGen::IrOp", align 4
  %28 = alloca %"struct.Luau::CodeGen::IrOp", align 4
  %29 = alloca %"struct.Luau::CodeGen::IrOp", align 4
  %30 = alloca %"struct.Luau::CodeGen::IrOp", align 4
  %31 = alloca %"struct.Luau::CodeGen::IrOp", align 4
  %32 = alloca %"struct.Luau::CodeGen::IrOp", align 4
  %33 = getelementptr inbounds nuw %"struct.Luau::CodeGen::IrOp", ptr %10, i32 0, i32 0
  store i32 %5, ptr %33, align 4
  store ptr %0, ptr %11, align 8, !tbaa !20
  store i8 %1, ptr %12, align 1, !tbaa !32
  store i32 %2, ptr %13, align 4, !tbaa !22
  store i32 %3, ptr %14, align 4, !tbaa !22
  store i32 %4, ptr %15, align 4, !tbaa !22
  store i32 %6, ptr %16, align 4, !tbaa !22
  store i32 %7, ptr %17, align 4, !tbaa !22
  %34 = load i32, ptr %13, align 4, !tbaa !22
  %35 = icmp slt i32 %34, 1
  br i1 %35, label %39, label %36

36:                                               ; preds = %8
  %37 = load i32, ptr %16, align 4, !tbaa !22
  %38 = icmp sgt i32 %37, 1
  br i1 %38, label %39, label %42

39:                                               ; preds = %36, %8
  %40 = getelementptr inbounds nuw %"struct.Luau::CodeGen::BuiltinImplResult", ptr %9, i32 0, i32 0
  store i32 0, ptr %40, align 4, !tbaa !24
  %41 = getelementptr inbounds nuw %"struct.Luau::CodeGen::BuiltinImplResult", ptr %9, i32 0, i32 1
  store i32 -1, ptr %41, align 4, !tbaa !27
  br label %112

42:                                               ; preds = %36
  %43 = load ptr, ptr %11, align 8, !tbaa !20
  %44 = load ptr, ptr %11, align 8, !tbaa !20
  %45 = load i32, ptr %15, align 4, !tbaa !22
  %46 = trunc i32 %45 to i8
  %47 = call i32 @_ZN4Luau7CodeGen9IrBuilder5vmRegEh(ptr noundef nonnull align 8 dereferenceable(752) %44, i8 noundef zeroext %46)
  %48 = getelementptr inbounds nuw %"struct.Luau::CodeGen::IrOp", ptr %18, i32 0, i32 0
  store i32 %47, ptr %48, align 4
  %49 = load i32, ptr %17, align 4, !tbaa !22
  %50 = getelementptr inbounds nuw %"struct.Luau::CodeGen::IrOp", ptr %18, i32 0, i32 0
  %51 = load i32, ptr %50, align 4
  call void @_ZN4Luau7CodeGenL18builtinCheckDoubleERNS0_9IrBuilderENS0_4IrOpEi(ptr noundef nonnull align 8 dereferenceable(752) %43, i32 %51, i32 noundef %49)
  call void @llvm.lifetime.start.p0(i64 4, ptr %19) #11
  %52 = load ptr, ptr %11, align 8, !tbaa !20
  %53 = load ptr, ptr %11, align 8, !tbaa !20
  %54 = load i32, ptr %15, align 4, !tbaa !22
  %55 = trunc i32 %54 to i8
  %56 = call i32 @_ZN4Luau7CodeGen9IrBuilder5vmRegEh(ptr noundef nonnull align 8 dereferenceable(752) %53, i8 noundef zeroext %55)
  %57 = getelementptr inbounds nuw %"struct.Luau::CodeGen::IrOp", ptr %20, i32 0, i32 0
  store i32 %56, ptr %57, align 4
  %58 = getelementptr inbounds nuw %"struct.Luau::CodeGen::IrOp", ptr %20, i32 0, i32 0
  %59 = load i32, ptr %58, align 4
  %60 = call i32 @_ZN4Luau7CodeGenL17builtinLoadDoubleERNS0_9IrBuilderENS0_4IrOpE(ptr noundef nonnull align 8 dereferenceable(752) %52, i32 %59)
  %61 = getelementptr inbounds nuw %"struct.Luau::CodeGen::IrOp", ptr %19, i32 0, i32 0
  store i32 %60, ptr %61, align 4
  call void @llvm.lifetime.start.p0(i64 4, ptr %21) #11
  %62 = load ptr, ptr %11, align 8, !tbaa !20
  call void @llvm.memcpy.p0.p0.i64(ptr align 4 %22, ptr align 4 %19, i64 4, i1 false), !tbaa.struct !28
  %63 = getelementptr inbounds nuw %"struct.Luau::CodeGen::IrOp", ptr %22, i32 0, i32 0
  %64 = load i32, ptr %63, align 4
  %65 = call i32 @_ZN4Luau7CodeGen9IrBuilder4instENS0_5IrCmdENS0_4IrOpE(ptr noundef nonnull align 8 dereferenceable(752) %62, i8 noundef zeroext 66, i32 %64)
  %66 = getelementptr inbounds nuw %"struct.Luau::CodeGen::IrOp", ptr %21, i32 0, i32 0
  store i32 %65, ptr %66, align 4
  call void @llvm.lifetime.start.p0(i64 4, ptr %23) #11
  %67 = load ptr, ptr %11, align 8, !tbaa !20
  %68 = load i8, ptr %12, align 1, !tbaa !32
  call void @llvm.memcpy.p0.p0.i64(ptr align 4 %24, ptr align 4 %21, i64 4, i1 false), !tbaa.struct !28
  %69 = getelementptr inbounds nuw %"struct.Luau::CodeGen::IrOp", ptr %24, i32 0, i32 0
  %70 = load i32, ptr %69, align 4
  %71 = call i32 @_ZN4Luau7CodeGen9IrBuilder4instENS0_5IrCmdENS0_4IrOpE(ptr noundef nonnull align 8 dereferenceable(752) %67, i8 noundef zeroext %68, i32 %70)
  %72 = getelementptr inbounds nuw %"struct.Luau::CodeGen::IrOp", ptr %23, i32 0, i32 0
  store i32 %71, ptr %72, align 4
  call void @llvm.lifetime.start.p0(i64 4, ptr %25) #11
  %73 = load ptr, ptr %11, align 8, !tbaa !20
  call void @llvm.memcpy.p0.p0.i64(ptr align 4 %26, ptr align 4 %23, i64 4, i1 false), !tbaa.struct !28
  %74 = getelementptr inbounds nuw %"struct.Luau::CodeGen::IrOp", ptr %26, i32 0, i32 0
  %75 = load i32, ptr %74, align 4
  %76 = call i32 @_ZN4Luau7CodeGen9IrBuilder4instENS0_5IrCmdENS0_4IrOpE(ptr noundef nonnull align 8 dereferenceable(752) %73, i8 noundef zeroext 64, i32 %75)
  %77 = getelementptr inbounds nuw %"struct.Luau::CodeGen::IrOp", ptr %25, i32 0, i32 0
  store i32 %76, ptr %77, align 4
  %78 = load ptr, ptr %11, align 8, !tbaa !20
  %79 = load ptr, ptr %11, align 8, !tbaa !20
  %80 = load i32, ptr %14, align 4, !tbaa !22
  %81 = trunc i32 %80 to i8
  %82 = call i32 @_ZN4Luau7CodeGen9IrBuilder5vmRegEh(ptr noundef nonnull align 8 dereferenceable(752) %79, i8 noundef zeroext %81)
  %83 = getelementptr inbounds nuw %"struct.Luau::CodeGen::IrOp", ptr %27, i32 0, i32 0
  store i32 %82, ptr %83, align 4
  call void @llvm.memcpy.p0.p0.i64(ptr align 4 %28, ptr align 4 %25, i64 4, i1 false), !tbaa.struct !28
  %84 = getelementptr inbounds nuw %"struct.Luau::CodeGen::IrOp", ptr %27, i32 0, i32 0
  %85 = load i32, ptr %84, align 4
  %86 = getelementptr inbounds nuw %"struct.Luau::CodeGen::IrOp", ptr %28, i32 0, i32 0
  %87 = load i32, ptr %86, align 4
  %88 = call i32 @_ZN4Luau7CodeGen9IrBuilder4instENS0_5IrCmdENS0_4IrOpES3_(ptr noundef nonnull align 8 dereferenceable(752) %78, i8 noundef zeroext 15, i32 %85, i32 %87)
  %89 = getelementptr inbounds nuw %"struct.Luau::CodeGen::IrOp", ptr %29, i32 0, i32 0
  store i32 %88, ptr %89, align 4
  %90 = load i32, ptr %14, align 4, !tbaa !22
  %91 = load i32, ptr %15, align 4, !tbaa !22
  %92 = icmp ne i32 %90, %91
  br i1 %92, label %93, label %109

93:                                               ; preds = %42
  %94 = load ptr, ptr %11, align 8, !tbaa !20
  %95 = load ptr, ptr %11, align 8, !tbaa !20
  %96 = load i32, ptr %14, align 4, !tbaa !22
  %97 = trunc i32 %96 to i8
  %98 = call i32 @_ZN4Luau7CodeGen9IrBuilder5vmRegEh(ptr noundef nonnull align 8 dereferenceable(752) %95, i8 noundef zeroext %97)
  %99 = getelementptr inbounds nuw %"struct.Luau::CodeGen::IrOp", ptr %30, i32 0, i32 0
  store i32 %98, ptr %99, align 4
  %100 = load ptr, ptr %11, align 8, !tbaa !20
  %101 = call i32 @_ZN4Luau7CodeGen9IrBuilder8constTagEh(ptr noundef nonnull align 8 dereferenceable(752) %100, i8 noundef zeroext 3)
  %102 = getelementptr inbounds nuw %"struct.Luau::CodeGen::IrOp", ptr %31, i32 0, i32 0
  store i32 %101, ptr %102, align 4
  %103 = getelementptr inbounds nuw %"struct.Luau::CodeGen::IrOp", ptr %30, i32 0, i32 0
  %104 = load i32, ptr %103, align 4
  %105 = getelementptr inbounds nuw %"struct.Luau::CodeGen::IrOp", ptr %31, i32 0, i32 0
  %106 = load i32, ptr %105, align 4
  %107 = call i32 @_ZN4Luau7CodeGen9IrBuilder4instENS0_5IrCmdENS0_4IrOpES3_(ptr noundef nonnull align 8 dereferenceable(752) %94, i8 noundef zeroext 12, i32 %104, i32 %106)
  %108 = getelementptr inbounds nuw %"struct.Luau::CodeGen::IrOp", ptr %32, i32 0, i32 0
  store i32 %107, ptr %108, align 4
  br label %109

109:                                              ; preds = %93, %42
  %110 = getelementptr inbounds nuw %"struct.Luau::CodeGen::BuiltinImplResult", ptr %9, i32 0, i32 0
  store i32 2, ptr %110, align 4, !tbaa !24
  %111 = getelementptr inbounds nuw %"struct.Luau::CodeGen::BuiltinImplResult", ptr %9, i32 0, i32 1
  store i32 1, ptr %111, align 4, !tbaa !27
  call void @llvm.lifetime.end.p0(i64 4, ptr %25) #11
  call void @llvm.lifetime.end.p0(i64 4, ptr %23) #11
  call void @llvm.lifetime.end.p0(i64 4, ptr %21) #11
  call void @llvm.lifetime.end.p0(i64 4, ptr %19) #11
  br label %112

112:                                              ; preds = %109, %39
  %113 = load i64, ptr %9, align 4
  ret i64 %113
}